target datalayout = "e-m:e-p270:32:32-p271:32:32-p272:64:64-i64:64-i128:128-f80:128-n8:16:32:64-S128"
target triple = "x86_64-pc-linux-gnu"

; Function Attrs: nounwind uwtable
define internal void @Zero16(ptr noundef %0, i32 noundef %1, i32 noundef %2) #0 {
  %4 = alloca ptr, align 8
  %5 = alloca i32, align 4
  %6 = alloca i32, align 4
  %7 = alloca ptr, align 8
  store ptr %0, ptr %4, align 8, !tbaa !70
  store i32 %1, ptr %5, align 4, !tbaa !71
  store i32 %2, ptr %6, align 4, !tbaa !71
  call void @llvm.lifetime.start.p0(i64 8, ptr %7) #4
  %8 = load ptr, ptr %4, align 8, !tbaa !70
  store ptr %8, ptr %7, align 8, !tbaa !94
  br label %9

9:                                                ; preds = %13, %3
  %10 = load i32, ptr %6, align 4, !tbaa !71
  %11 = add i32 %10, -1
  store i32 %11, ptr %6, align 4, !tbaa !71
  %12 = icmp ne i32 %10, 0
  br i1 %12, label %13, label %19

13:                                               ; preds = %9
  %14 = load ptr, ptr %7, align 8, !tbaa !94
  store i16 0, ptr %14, align 2, !tbaa !96
  %15 = load i32, ptr %5, align 4, !tbaa !71
  %16 = load ptr, ptr %7, align 8, !tbaa !94
  %17 = sext i32 %15 to i64
  %18 = getelementptr inbounds i16, ptr %16, i64 %17
  store ptr %18, ptr %7, align 8, !tbaa !94
  br label %9, !llvm.loop !154

19:                                               ; preds = %9
  call void @llvm.lifetime.end.p0(i64 8, ptr %7) #4
  ret void
}