; Function Attrs: nofree norecurse nosync nounwind memory(argmem: write) uwtable
define internal void @Zero16(ptr noundef writeonly captures(none) %0, i32 noundef %1, i32 noundef %2) #5 {
  %.not5 = icmp eq i32 %2, 0
  br i1 %.not5, label %._crit_edge, label %.lr.ph

.lr.ph:                                           ; preds = %3
  %4 = sext i32 %1 to i64
  br label %5

5:                                                ; preds = %.lr.ph, %5
  %.07 = phi ptr [ %0, %.lr.ph ], [ %7, %5 ]
  %.046 = phi i32 [ %2, %.lr.ph ], [ %6, %5 ]
  %6 = add i32 %.046, -1
  store i16 0, ptr %.07, align 2, !tbaa !81
  %7 = getelementptr inbounds i16, ptr %.07, i64 %4
  %.not = icmp eq i32 %6, 0
  br i1 %.not, label %._crit_edge, label %5, !llvm.loop !136

._crit_edge:                                      ; preds = %5, %3
  ret void
}